(dp1
S'__traits_version__'
p2
S'3.5.0'
p3
sS'current_ms_transition'
p4
F15682.3755494
sS'transitions'
p5
ccopy_reg
_reconstructor
p6
(ctraits.trait_handlers
TraitListObject
p7
c__builtin__
list
p8
(lp9
ctraits.traits
__newobj__
p10
(cTransitionTracker
Transition
p11
tRp12
(dp13
S'ms_state'
p14
I0
sS'current_frequency'
p15
F6.9844600000000003
sS'rabi_period'
p16
F236
sS'name'
p17
V14N+1 mS0
p18
sS'spin_type'
p19
S'14N +1'
p20
sS'date'
p21
S'2013-03-02 07:01'
p22
sS'ms_transition_at'
p23
F14261.799999999999
sS'frequency'
p24
F6.8263176787999997
sS'rabi_parameters'
p25
g6
(g7
g8
(lp26
g10
(cTransitionTracker
RabiParameters
p27
tRp28
(dp29
g2
S'4.3.0'
p30
sS'amplification'
p31
I100
sS'power'
p32
V0.4 * 0.6 V, 100%
p33
sS'power_factor'
p34
I0
sS'period'
p35
F88
sS'awg_voltage'
p36
F0.69999999999999996
sg21
S'2013-05-02 09:42'
p37
sbag10
(g27
tRp38
(dp39
g2
g30
sg31
I100
sg32
V0.4 * 0.66 V, 100%
p40
sg34
I0
sg35
F94.5
sg36
F0.69999999999999996
sg21
S'2013-06-28 13:11'
p41
sbag10
(g27
tRp42
(dp43
g2
g30
sg31
I100
sg32
V0.4*0.7V, 100%
p44
sg34
I0
sg35
F87.700000000000003
sg36
F0.69999999999999996
sg21
S'2013-10-11 11:12'
p45
sbatRp46
(dp47
S'name_items'
p48
S'rabi_parameters_items'
p49
sg17
g25
sbsS'rabi_power'
p50
V0.2*0.7 V
p51
sg2
g30
sbag10
(g11
tRp52
(dp53
g14
I0
sg15
F2.9074599999999999
sg16
F534
sg17
V14N-1 mS0
p54
sg19
S'14N -1'
p55
sg21
S'2013-03-01 13:32'
p56
sg23
F14257.969999999999
sg24
F3.0660299000000002
sg25
g6
(g7
g8
(lp57
g10
(g27
tRp58
(dp59
g2
g30
sg31
I100
sg32
V0.4 * 0.6 V, 100%
p60
sg34
I0
sg35
F216
sg36
F0.69999999999999996
sg21
S'2013-05-02 09:50'
p61
sbag10
(g27
tRp62
(dp63
g2
g30
sg31
I100
sg32
V0.4 * 0.66 V, 100%
p64
sg34
I0
sg35
F226
sg36
F0.69999999999999996
sg21
S'2013-06-28 13:21'
p65
sbatRp66
(dp67
g48
S'rabi_parameters_items'
p68
sg17
g25
sbsg50
V0.2*0.7 V
p69
sg2
g30
sbag10
(g11
tRp70
(dp71
g14
I-1
sg15
F4.8184699999999996
sg16
F238
sg17
V14N+1 mS-1
p72
sg19
S'14N +1'
p73
sg21
S'2013-03-01 17:22'
p74
sg23
F14261.9
sg24
F4.6603298922
sg25
g6
(g7
g8
(lp75
g10
(g27
tRp76
(dp77
g2
g30
sg31
I100
sg32
V1 * 0.6 V, 100%
p78
sg34
I0
sg35
F160
sg36
F0.69999999999999996
sg21
S'2013-05-02 10:05'
p79
sbag10
(g27
tRp80
(dp81
g2
g30
sg31
I100
sg32
V1 * 0.6 V, 100%
p82
sg34
I0
sg35
F161
sg36
F0.69999999999999996
sg21
S'2013-05-02 16:43'
p83
sbag10
(g27
tRp84
(dp85
g2
g30
sg31
I100
sg32
V1 * 0.6 V, 100%
p86
sg34
I0
sg35
F162
sg36
F0.69999999999999996
sg21
S'2013-05-06 10:47'
p87
sbatRp88
(dp89
g48
S'rabi_parameters_items'
p90
sg17
g25
sbsg50
V1*0.7 V
p91
sg2
g30
sbag10
(g11
tRp92
(dp93
g14
I-1
sg15
F5.0723900000000004
sg16
F227
sg17
V14N-1 mS-1
p94
sg19
S'14N -1'
p95
sg21
S'2013-03-01 17:44'
p96
sg23
F14525.299999999999
sg24
F5.2016076627999999
sg25
g6
(g7
g8
(lp97
g10
(g27
tRp98
(dp99
g2
g30
sg31
I100
sg32
V1 * 0.6 V, 100%
p100
sg34
I0
sg35
F140
sg36
F0.69999999999999996
sg21
S'2013-05-02 10:11'
p101
sbag10
(g27
tRp102
(dp103
g2
g30
sg31
I100
sg32
V1, Tomography
p104
sg34
I0
sg35
F144
sg36
F0.69999999999999996
sg21
S'2013-05-08 11:01'
p105
sbag10
(g27
tRp106
(dp107
g2
g30
sg31
I100
sg32
V0.98, Tomography
p108
sg34
I0
sg35
F146.19999999999999
sg36
F0.69999999999999996
sg21
S'2013-05-16 18:49'
p109
sbatRp110
(dp111
g48
S'rabi_parameters_items'
p112
sg17
g25
sbsg50
V1*0.7 V
p113
sg2
g30
sbag10
(g11
tRp114
(dp115
g14
I-1
sg15
F7.5067500000000003
sg16
F34.299999999999997
sg17
V13C414 mS-1
p116
sg19
S'13C'
p117
sg21
S'2013-03-01 13:35'
p118
sg23
F14542.799999999999
sg24
F7.0638120000000004
sg25
g6
(g7
g8
(lp119
g10
(g27
tRp120
(dp121
g2
g30
sg31
I100
sg32
V0.5 * 0.6 V, 100%
p122
sg34
I0
sg35
F39.200000000000003
sg36
F0.69999999999999996
sg21
S'2013-05-02 09:37'
p123
sbag10
(g27
tRp124
(dp125
g2
g30
sg31
I100
sg32
V0.5, Tomography
p126
sg34
I0
sg35
F40.5
sg36
F0.69999999999999996
sg21
S'2013-05-02 15:06'
p127
sbag10
(g27
tRp128
(dp129
g2
g30
sg31
I100
sg32
V0.5, Tomography
p130
sg34
I0
sg35
F39.600000000000001
sg36
F0.69999999999999996
sg21
S'2013-05-02 16:56'
p131
sbag10
(g27
tRp132
(dp133
g2
g30
sg31
I100
sg32
V0.5, Tomography
p134
sg34
I0
sg35
F39.600000000000001
sg36
F0.69999999999999996
sg21
S'2013-05-06 09:41'
p135
sbag10
(g27
tRp136
(dp137
g2
g30
sg31
I100
sg32
V0.5, Tomography
p138
sg34
I0
sg35
F40.700000000000003
sg36
F0.69999999999999996
sg21
S'2013-05-08 11:24'
p139
sbag10
(g27
tRp140
(dp141
g2
g30
sg31
I100
sg32
V0.58, Tomography
p142
sg34
I0
sg35
F37
sg36
F0.69999999999999996
sg21
S'2013-05-16 18:50'
p143
sbatRp144
(dp145
g48
S'rabi_parameters_items'
p146
sg17
g25
sbsg50
V1*0.7 V
p147
sg2
g30
sbag10
(g11
tRp148
(dp149
g14
I0
sg15
F7.0936899999999996
sg16
F37.100000000000001
sg17
V13C mS0
p150
sg19
S'13C'
p151
sg21
S'2013-03-01 17:06'
p152
sg23
F14543.120000000001
sg24
F6.6508760000000002
sg25
g6
(g7
g8
(lp153
g10
(g27
tRp154
(dp155
g2
g30
sg31
I100
sg32
V0.2 * 0.6 V, 100 %
p156
sg34
I0
sg35
F70
sg36
F0.69999999999999996
sg21
S'2013-05-02 09:24'
p157
sbag10
(g27
tRp158
(dp159
g2
g30
sg31
I100
sg32
V0.2 * 0.66 V, 100 %
p160
sg34
I0
sg35
F117
sg36
F0.69999999999999996
sg21
S'2013-06-28 13:30'
p161
sbag10
(g27
tRp162
(dp163
g2
g30
sg31
I100
sg32
V0.4*0.7V, 100%
p164
sg34
I0
sg35
F67.299999999999997
sg36
F0.69999999999999996
sg21
S'2013-10-11 11:51'
p165
sbatRp166
(dp167
g48
S'rabi_parameters_items'
p168
sg17
g25
sbsg50
V0.8*0.7 V
p169
sg2
g30
sbag10
(g11
tRp170
(dp171
g14
I-1
sg15
F7.18248
sg16
F31.600000000000001
sg17
V13C90 mS-1
p172
sg19
S'13C'
p173
sg21
S'2013-03-02 11:36'
p174
sg23
F14257.93
sg24
F6.6307320000000001
sg25
g6
(g7
g8
(lp175
g10
(g27
tRp176
(dp177
g2
g30
sg31
I100
sg32
V0.5, Tomography
p178
sg34
I0
sg35
F43.200000000000003
sg36
F0.69999999999999996
sg21
S'2013-05-02 13:13'
p179
sbag10
(g27
tRp180
(dp181
g2
g30
sg31
I100
sg32
V0.5, Tomography
p182
sg34
I0
sg35
F43
sg36
F0.69999999999999996
sg21
S'2013-05-02 17:11'
p183
sbag10
(g27
tRp184
(dp185
g2
g30
sg31
I100
sg32
V0.5, Tomography
p186
sg34
I0
sg35
F43.5
sg36
F0.69999999999999996
sg21
S'2013-05-06 09:59'
p187
sbag10
(g27
tRp188
(dp189
g2
g30
sg31
I100
sg32
V0.5, Tomography
p190
sg34
I0
sg35
F43.799999999999997
sg36
F0.69999999999999996
sg21
S'2013-05-08 12:08'
p191
sbag10
(g27
tRp192
(dp193
g2
g30
sg31
I100
sg32
V0.64, Tomography
p194
sg34
I0
sg35
F36.950000000000003
sg36
F0.69999999999999996
sg21
S'2013-05-16 12:45'
p195
sbatRp196
(dp197
g48
S'rabi_parameters_items'
p198
sg17
g25
sbsg50
V1*0.7 V
p199
sg2
g30
sbag10
(g11
tRp200
(dp201
g14
I-1
sg15
F7.1844799999999998
sg17
S'fid2.0khz'
p202
sg19
S'13C'
p203
sg21
S'2014-05-06 17:26'
p204
sg23
cnumpy.core.multiarray
scalar
p205
(cnumpy
dtype
p206
(S'f8'
I0
I1
tRp207
(I3
S'<'
NNNI-1
I-1
I0
tbS'\r/\x05\xf5|\xe3\xc8@'
tRp208
sg24
F6.0540500000000002
sg25
g6
(g7
g8
(ltRp209
(dp210
g48
S'rabi_parameters_items'
p211
sg17
g25
sbsg2
g30
sbatRp212
(dp213
g48
S'transitions_items'
p214
sg17
g5
sbsS'mw_mixing_frequency'
p215
F20
s.