(dp1
S'__traits_version__'
p2
S'3.5.0'
p3
sS'current_ms_transition'
p4
cnumpy.core.multiarray
scalar
p5
(cnumpy
dtype
p6
(S'f8'
I0
I1
tRp7
(I3
S'<'
NNNI-1
I-1
I0
tbS'(\x94\x9fe\x9f|\xce@'
tRp8
sS'transitions'
p9
ccopy_reg
_reconstructor
p10
(ctraits.trait_handlers
TraitListObject
p11
c__builtin__
list
p12
(lp13
ctraits.traits
__newobj__
p14
(cTransitionTracker
Transition
p15
tRp16
(dp17
S'ms_state'
p18
I0
sS'current_frequency'
p19
F6.9764400000000002
sS'rabi_period'
p20
F236
sS'name'
p21
V14N+1 mS0
p22
sS'spin_type'
p23
S'14N +1'
p24
sS'date'
p25
S'2013-03-02 07:01'
p26
sS'ms_transition_at'
p27
F14261.799999999999
sS'frequency'
p28
F6.8263176787999997
sS'rabi_parameters'
p29
g10
(g11
g12
(lp30
g14
(cTransitionTracker
RabiParameters
p31
tRp32
(dp33
g2
S'4.5.0'
p34
sS'period'
p35
F148
sS'rf_amp'
p36
F100
sS'voltage'
p37
F0.69999999999999996
sg25
S'2014-06-10 15:51'
p38
sS'amp'
p39
F0.40000000000000002
sS'pi2'
p40
F22.25
sS'pi'
p41
F44.5
sS'omega'
p42
F0.011235955056179775
sbag14
(g31
tRp43
(dp44
g2
g34
sg35
F79.299999999999997
sg36
F100
sg37
F0.69999999999999996
sg25
S'2014-06-10 15:51'
p45
sg39
F1
sg40
F11.843745212725
sg41
F23.687490425450001
sg42
F0.021108187951510329
sbatRp46
(dp47
S'name_items'
p48
S'rabi_parameters_items'
p49
sg21
g29
sbsS'rabi_power'
p50
V0.2*0.7 V
p51
sg2
g34
sbag14
(g15
tRp52
(dp53
g18
I0
sg19
F2.9154900000000001
sg20
F534
sg21
V14N-1 mS0
p54
sg23
S'14N -1'
p55
sg25
S'2013-03-01 13:32'
p56
sg27
F14257.969999999999
sg28
F3.0660299000000002
sg29
g10
(g11
g12
(lp57
g14
(g31
tRp58
(dp59
g2
g34
sg35
F193.92005962900001
sg36
F100
sg37
F0.69999999999999996
sg25
S'2014-06-10 15:51'
p60
sg39
F0.40000000000000002
sg40
F48.480014907250002
sg41
F96.960029814500004
sg42
F0.0051567640908999277
sbag14
(g31
tRp61
(dp62
g2
g34
sg35
F95.151231243300003
sg36
F100
sg37
F0.69999999999999996
sg25
S'2014-06-10 15:51'
p63
sg39
F1
sg40
F23.787807810825001
sg41
F47.575615621650002
sg42
F0.010509585498090064
sbatRp64
(dp65
g48
S'rabi_parameters_items'
p66
sg21
g29
sbsg50
V0.2*0.7 V
p67
sg2
g34
sbag14
(g15
tRp68
(dp69
g18
I-1
sg19
F4.8104399999999998
sg20
F238
sg21
V14N+1 mS-1
p70
sg23
S'14N +1'
p71
sg25
S'2013-03-01 17:22'
p72
sg27
F14261.9
sg28
F4.6603298922
sg29
g10
(g11
g12
(lp73
g14
(g31
tRp74
(dp75
g2
g34
sg35
F129.350495196
sg36
F100
sg37
F0.69999999999999996
sg25
S'2014-06-10 15:51'
p76
sg39
F1
sg40
F32.337623798999999
sg41
F64.675247597999999
sg42
F0.0077309329081789533
sbag14
(g31
tRp77
(dp78
g2
g34
sg35
F274.75345179499999
sg36
F100
sg37
F0.69999999999999996
sg25
S'2014-06-10 15:51'
p79
sg39
F0.40000000000000002
sg40
F68.688362948749997
sg41
F137.37672589749999
sg42
F0.0036396267033839617
sbatRp80
(dp81
g48
S'rabi_parameters_items'
p82
sg21
g29
sbsg50
V1*0.7 V
p83
sg2
g34
sbag14
(g15
tRp84
(dp85
g18
I-1
sg19
F5.0804200000000002
sg20
F227
sg21
V14N-1 mS-1
p86
sg23
S'14N -1'
p87
sg25
S'2013-03-01 17:44'
p88
sg27
F14525.299999999999
sg28
F5.2016076627999999
sg29
g10
(g11
g12
(lp89
g14
(g31
tRp90
(dp91
g2
g34
sg35
F104.506897276
sg36
F100
sg37
F0.69999999999999996
sg25
S'2014-06-10 15:51'
p92
sg39
F1
sg40
F26.126724319000001
sg41
F52.253448638000002
sg42
F0.0095687464278939021
sbag14
(g31
tRp93
(dp94
g2
g34
sg35
F222.914403736
sg36
F100
sg37
F0.69999999999999996
sg25
S'2014-06-10 15:51'
p95
sg39
F0.40000000000000002
sg40
F55.728600933999999
sg41
F111.457201868
sg42
F0.0044860268481542861
sbatRp96
(dp97
g48
S'rabi_parameters_items'
p98
sg21
g29
sbsg50
V1*0.7 V
p99
sg2
g34
sbag14
(g15
tRp100
(dp101
g18
I-1
sg19
F7.4788100000000002
sg20
F34.299999999999997
sg21
V13C414 mS-1
p102
sg23
S'13C'
p103
sg25
S'2013-03-01 13:35'
p104
sg27
F14542.799999999999
sg28
F7.0638120000000004
sg29
g10
(g11
g12
(lp105
g14
(g31
tRp106
(dp107
g2
g34
sg35
F61.874339999999997
sg36
F100
sg37
F0.69999999999999996
sg25
S'2014-06-10 15:51'
p108
sg39
F0.40000000000000002
sg40
F15.468584999999999
sg41
F30.937169999999998
sg42
F0.016161788554027407
sbag14
(g31
tRp109
(dp110
g2
g34
sg35
F30.310538492999999
sg36
F100
sg37
F0.69999999999999996
sg25
S'2014-06-10 15:51'
p111
sg39
F1
sg40
F7.5776346232499998
sg41
F15.1552692465
sg42
F0.032991825606494676
sbatRp112
(dp113
g48
S'rabi_parameters_items'
p114
sg21
g29
sbsg50
V1*0.7 V
p115
sg2
g34
sbag14
(g15
tRp116
(dp117
g18
I0
sg19
F7.0657500000000004
sg20
F37.100000000000001
sg21
V13C mS0
p118
sg23
S'13C'
p119
sg25
S'2013-03-01 17:06'
p120
sg27
F14543.120000000001
sg28
F6.6508760000000002
sg29
g10
(g11
g12
(lp121
g14
(g31
tRp122
(dp123
g2
g34
sg35
F31.096
sg36
F100
sg37
F0.69999999999999996
sg25
S'2014-06-10 15:51'
p124
sg39
F1
sg40
F7.774
sg41
F15.548
sg42
F0.032158476974530489
sbag14
(g31
tRp125
(dp126
g2
g34
sg35
F71.698864328900001
sg36
F100
sg37
F0.69999999999999996
sg25
S'2014-06-10 15:51'
p127
sg39
F0.40000000000000002
sg40
F17.924716082225
sg41
F35.84943216445
sg42
F0.013947222307633194
sbatRp128
(dp129
g48
S'rabi_parameters_items'
p130
sg21
g29
sbsg50
V0.8*0.7 V
p131
sg2
g34
sbag14
(g15
tRp132
(dp133
g18
I-1
sg19
F7.1545500000000004
sg20
F31.600000000000001
sg21
V13C90 mS-1
p134
sg23
S'13C'
p135
sg25
S'2013-03-02 11:36'
p136
sg27
F14257.93
sg28
F6.6307320000000001
sg29
g10
(g11
g12
(lp137
g14
(g31
tRp138
(dp139
g2
g34
sg35
F66.853327332999996
sg36
F100
sg37
F0.69999999999999996
sg25
S'2014-06-10 15:51'
p140
sg39
F0.40000000000000002
sg40
F16.713331833249999
sg41
F33.426663666499998
sg42
F0.014958118614185747
sbag14
(g31
tRp141
(dp142
g2
g34
sg35
F29.555
sg36
F100
sg37
F0.69999999999999996
sg25
S'2014-06-10 15:51'
p143
sg39
F1
sg40
F7.3887499999999999
sg41
F14.7775
sg42
F0.033835222466587718
sbatRp144
(dp145
g48
S'rabi_parameters_items'
p146
sg21
g29
sbsg50
V1*0.7 V
p147
sg2
g34
sbag14
(g15
tRp148
(dp149
g18
I-1
sg19
F7.1565500000000002
sg21
S'fid2.0khz'
p150
sg23
S'13C'
p151
sg25
S'2014-05-06 17:26'
p152
sg27
g5
(g7
S'\r/\x05\xf5|\xe3\xc8@'
tRp153
sg28
F6.0540500000000002
sg29
g10
(g11
g12
(ltRp154
(dp155
g48
S'rabi_parameters_items'
p156
sg21
g29
sbsg2
g34
sbatRp157
(dp158
g48
S'transitions_items'
p159
sg21
g9
sbsS'mw_mixing_frequency'
p160
F20
s.