(dp1
S'__traits_version__'
p2
S'3.5.0'
p3
sS'current_ms_transition'
p4
cnumpy.core.multiarray
scalar
p5
(cnumpy
dtype
p6
(S'f8'
I0
I1
tRp7
(I3
S'<'
NNNI-1
I-1
I0
tbS'\x7fpt\xfc\xaf\x8c\xce@'
tRp8
sS'transitions'
p9
ccopy_reg
_reconstructor
p10
(ctraits.trait_handlers
TraitListObject
p11
c__builtin__
list
p12
(lp13
ctraits.traits
__newobj__
p14
(cTransitionTracker
Transition
p15
tRp16
(dp17
S'ms_state'
p18
I0
sS'current_frequency'
p19
F6.9799600000000002
sS'rabi_period'
p20
F236
sS'name'
p21
V14N+1 mS0
p22
sS'spin_type'
p23
S'14N +1'
p24
sS'date'
p25
S'2013-03-02 07:01'
p26
sS'ms_transition_at'
p27
F14261.799999999999
sS'frequency'
p28
F6.8263176787999997
sS'rabi_parameters'
p29
g10
(g11
g12
(lp30
g14
(cTransitionTracker
RabiParameters
p31
tRp32
(dp33
g2
S'4.3.0'
p34
sS'amplification'
p35
I100
sS'power'
p36
V0.4 * 0.6 V, 100%
p37
sS'power_factor'
p38
I0
sS'period'
p39
F88
sS'awg_voltage'
p40
F0.69999999999999996
sg25
S'2013-05-02 09:42'
p41
sbag14
(g31
tRp42
(dp43
g2
g34
sg35
I100
sg36
V0.4 * 0.66 V, 100%
p44
sg38
I0
sg39
F94.5
sg40
F0.69999999999999996
sg25
S'2013-06-28 13:11'
p45
sbag14
(g31
tRp46
(dp47
g2
g34
sg35
I100
sg36
V0.4*0.7V, 100%
p48
sg38
I0
sg39
F87.700000000000003
sg40
F0.69999999999999996
sg25
S'2013-10-11 11:12'
p49
sbatRp50
(dp51
S'name_items'
p52
S'rabi_parameters_items'
p53
sg21
g29
sbsS'rabi_power'
p54
V0.2*0.7 V
p55
sg2
g34
sbag14
(g15
tRp56
(dp57
g18
I0
sg19
F2.9119600000000001
sg20
F534
sg21
V14N-1 mS0
p58
sg23
S'14N -1'
p59
sg25
S'2013-03-01 13:32'
p60
sg27
F14257.969999999999
sg28
F3.0660299000000002
sg29
g10
(g11
g12
(lp61
g14
(g31
tRp62
(dp63
g2
g34
sg35
I100
sg36
V0.4 * 0.6 V, 100%
p64
sg38
I0
sg39
F216
sg40
F0.69999999999999996
sg25
S'2013-05-02 09:50'
p65
sbag14
(g31
tRp66
(dp67
g2
g34
sg35
I100
sg36
V0.4 * 0.66 V, 100%
p68
sg38
I0
sg39
F226
sg40
F0.69999999999999996
sg25
S'2013-06-28 13:21'
p69
sbatRp70
(dp71
g52
S'rabi_parameters_items'
p72
sg21
g29
sbsg54
V0.2*0.7 V
p73
sg2
g34
sbag14
(g15
tRp74
(dp75
g18
I-1
sg19
F4.8139700000000003
sg20
F238
sg21
V14N+1 mS-1
p76
sg23
S'14N +1'
p77
sg25
S'2013-03-01 17:22'
p78
sg27
F14261.9
sg28
F4.6603298922
sg29
g10
(g11
g12
(lp79
g14
(g31
tRp80
(dp81
g2
g34
sg35
I100
sg36
V1 * 0.6 V, 100%
p82
sg38
I0
sg39
F160
sg40
F0.69999999999999996
sg25
S'2013-05-02 10:05'
p83
sbag14
(g31
tRp84
(dp85
g2
g34
sg35
I100
sg36
V1 * 0.6 V, 100%
p86
sg38
I0
sg39
F161
sg40
F0.69999999999999996
sg25
S'2013-05-02 16:43'
p87
sbag14
(g31
tRp88
(dp89
g2
g34
sg35
I100
sg36
V1 * 0.6 V, 100%
p90
sg38
I0
sg39
F162
sg40
F0.69999999999999996
sg25
S'2013-05-06 10:47'
p91
sbatRp92
(dp93
g52
S'rabi_parameters_items'
p94
sg21
g29
sbsg54
V1*0.7 V
p95
sg2
g34
sbag14
(g15
tRp96
(dp97
g18
I-1
sg19
F5.0768899999999997
sg20
F227
sg21
V14N-1 mS-1
p98
sg23
S'14N -1'
p99
sg25
S'2013-03-01 17:44'
p100
sg27
F14525.299999999999
sg28
F5.2016076627999999
sg29
g10
(g11
g12
(lp101
g14
(g31
tRp102
(dp103
g2
g34
sg35
I100
sg36
V1 * 0.6 V, 100%
p104
sg38
I0
sg39
F140
sg40
F0.69999999999999996
sg25
S'2013-05-02 10:11'
p105
sbag14
(g31
tRp106
(dp107
g2
g34
sg35
I100
sg36
V1, Tomography
p108
sg38
I0
sg39
F144
sg40
F0.69999999999999996
sg25
S'2013-05-08 11:01'
p109
sbag14
(g31
tRp110
(dp111
g2
g34
sg35
I100
sg36
V0.98, Tomography
p112
sg38
I0
sg39
F146.19999999999999
sg40
F0.69999999999999996
sg25
S'2013-05-16 18:49'
p113
sbatRp114
(dp115
g52
S'rabi_parameters_items'
p116
sg21
g29
sbsg54
V1*0.7 V
p117
sg2
g34
sbag14
(g15
tRp118
(dp119
g18
I-1
sg19
F7.4910899999999998
sg20
F34.299999999999997
sg21
V13C414 mS-1
p120
sg23
S'13C'
p121
sg25
S'2013-03-01 13:35'
p122
sg27
F14542.799999999999
sg28
F7.0638120000000004
sg29
g10
(g11
g12
(lp123
g14
(g31
tRp124
(dp125
g2
g34
sg35
I100
sg36
V0.5 * 0.6 V, 100%
p126
sg38
I0
sg39
F39.200000000000003
sg40
F0.69999999999999996
sg25
S'2013-05-02 09:37'
p127
sbag14
(g31
tRp128
(dp129
g2
g34
sg35
I100
sg36
V0.5, Tomography
p130
sg38
I0
sg39
F40.5
sg40
F0.69999999999999996
sg25
S'2013-05-02 15:06'
p131
sbag14
(g31
tRp132
(dp133
g2
g34
sg35
I100
sg36
V0.5, Tomography
p134
sg38
I0
sg39
F39.600000000000001
sg40
F0.69999999999999996
sg25
S'2013-05-02 16:56'
p135
sbag14
(g31
tRp136
(dp137
g2
g34
sg35
I100
sg36
V0.5, Tomography
p138
sg38
I0
sg39
F39.600000000000001
sg40
F0.69999999999999996
sg25
S'2013-05-06 09:41'
p139
sbag14
(g31
tRp140
(dp141
g2
g34
sg35
I100
sg36
V0.5, Tomography
p142
sg38
I0
sg39
F40.700000000000003
sg40
F0.69999999999999996
sg25
S'2013-05-08 11:24'
p143
sbag14
(g31
tRp144
(dp145
g2
g34
sg35
I100
sg36
V0.58, Tomography
p146
sg38
I0
sg39
F37
sg40
F0.69999999999999996
sg25
S'2013-05-16 18:50'
p147
sbatRp148
(dp149
g52
S'rabi_parameters_items'
p150
sg21
g29
sbsg54
V1*0.7 V
p151
sg2
g34
sbag14
(g15
tRp152
(dp153
g18
I0
sg19
F7.07803
sg20
F37.100000000000001
sg21
V13C mS0
p154
sg23
S'13C'
p155
sg25
S'2013-03-01 17:06'
p156
sg27
F14543.120000000001
sg28
F6.6508760000000002
sg29
g10
(g11
g12
(lp157
g14
(g31
tRp158
(dp159
g2
g34
sg35
I100
sg36
V0.2 * 0.6 V, 100 %
p160
sg38
I0
sg39
F70
sg40
F0.69999999999999996
sg25
S'2013-05-02 09:24'
p161
sbag14
(g31
tRp162
(dp163
g2
g34
sg35
I100
sg36
V0.2 * 0.66 V, 100 %
p164
sg38
I0
sg39
F117
sg40
F0.69999999999999996
sg25
S'2013-06-28 13:30'
p165
sbag14
(g31
tRp166
(dp167
g2
g34
sg35
I100
sg36
V0.4*0.7V, 100%
p168
sg38
I0
sg39
F67.299999999999997
sg40
F0.69999999999999996
sg25
S'2013-10-11 11:51'
p169
sbatRp170
(dp171
g52
S'rabi_parameters_items'
p172
sg21
g29
sbsg54
V0.8*0.7 V
p173
sg2
g34
sbag14
(g15
tRp174
(dp175
g18
I-1
sg19
F7.1668200000000004
sg20
F31.600000000000001
sg21
V13C90 mS-1
p176
sg23
S'13C'
p177
sg25
S'2013-03-02 11:36'
p178
sg27
F14257.93
sg28
F6.6307320000000001
sg29
g10
(g11
g12
(lp179
g14
(g31
tRp180
(dp181
g2
g34
sg35
I100
sg36
V0.5, Tomography
p182
sg38
I0
sg39
F43.200000000000003
sg40
F0.69999999999999996
sg25
S'2013-05-02 13:13'
p183
sbag14
(g31
tRp184
(dp185
g2
g34
sg35
I100
sg36
V0.5, Tomography
p186
sg38
I0
sg39
F43
sg40
F0.69999999999999996
sg25
S'2013-05-02 17:11'
p187
sbag14
(g31
tRp188
(dp189
g2
g34
sg35
I100
sg36
V0.5, Tomography
p190
sg38
I0
sg39
F43.5
sg40
F0.69999999999999996
sg25
S'2013-05-06 09:59'
p191
sbag14
(g31
tRp192
(dp193
g2
g34
sg35
I100
sg36
V0.5, Tomography
p194
sg38
I0
sg39
F43.799999999999997
sg40
F0.69999999999999996
sg25
S'2013-05-08 12:08'
p195
sbag14
(g31
tRp196
(dp197
g2
g34
sg35
I100
sg36
V0.64, Tomography
p198
sg38
I0
sg39
F36.950000000000003
sg40
F0.69999999999999996
sg25
S'2013-05-16 12:45'
p199
sbatRp200
(dp201
g52
S'rabi_parameters_items'
p202
sg21
g29
sbsg54
V1*0.7 V
p203
sg2
g34
sbag14
(g15
tRp204
(dp205
g18
I-1
sg19
F7.1688200000000002
sg21
S'fid2.0khz'
p206
sg23
S'13C'
p207
sg25
S'2014-05-06 17:26'
p208
sg27
g5
(g7
S'\r/\x05\xf5|\xe3\xc8@'
tRp209
sg28
F6.0540500000000002
sg29
g10
(g11
g12
(ltRp210
(dp211
g52
S'rabi_parameters_items'
p212
sg21
g29
sbsg2
g34
sbatRp213
(dp214
g52
S'transitions_items'
p215
sg21
g9
sbsS'mw_mixing_frequency'
p216
F20
s.