(dp1
S'__traits_version__'
p2
S'3.5.0'
p3
sS'current_ms_transition'
p4
F15611.7252271
sS'transitions'
p5
ccopy_reg
_reconstructor
p6
(ctraits.trait_handlers
TraitListObject
p7
c__builtin__
list
p8
(lp9
ctraits.traits
__newobj__
p10
(cTransitionTracker
Transition
p11
tRp12
(dp13
S'ms_state'
p14
I0
sS'current_frequency'
p15
F6.9767099999999997
sS'rabi_period'
p16
F236
sS'name'
p17
V14N+1 mS0
p18
sS'spin_type'
p19
S'14N +1'
p20
sS'date'
p21
S'2013-03-02 07:01'
p22
sS'ms_transition_at'
p23
F14261.799999999999
sS'frequency'
p24
F6.8263176787999997
sS'rabi_parameters'
p25
g6
(g7
g8
(lp26
g10
(cTransitionTracker
RabiParameters
p27
tRp28
(dp29
g2
S'4.5.0'
p30
sS'period'
p31
F148
sS'rf_amp'
p32
F100
sS'voltage'
p33
F0.69999999999999996
sg21
S'2014-06-10 15:51'
p34
sS'amp'
p35
F0.40000000000000002
sS'pi2'
p36
F22.25
sS'pi'
p37
F44.5
sS'omega'
p38
F0.011235955056179775
sbag10
(g27
tRp39
(dp40
g2
g30
sg31
F79.299999999999997
sg32
F100
sg33
F0.69999999999999996
sg21
S'2014-06-10 15:51'
p41
sg35
F1
sg36
F11.843745212725
sg37
F23.687490425450001
sg38
F0.021108187951510329
sbatRp42
(dp43
S'name_items'
p44
S'rabi_parameters_items'
p45
sg17
g25
sbsS'rabi_power'
p46
V0.2*0.7 V
p47
sg2
g30
sbag10
(g11
tRp48
(dp49
g14
I0
sg15
F2.9152200000000001
sg16
F534
sg17
V14N-1 mS0
p50
sg19
S'14N -1'
p51
sg21
S'2013-03-01 13:32'
p52
sg23
F14257.969999999999
sg24
F3.0660299000000002
sg25
g6
(g7
g8
(lp53
g10
(g27
tRp54
(dp55
g2
g30
sg31
F193.92005962900001
sg32
F100
sg33
F0.69999999999999996
sg21
S'2014-06-10 15:51'
p56
sg35
F0.40000000000000002
sg36
F48.480014907250002
sg37
F96.960029814500004
sg38
F0.0051567640908999277
sbag10
(g27
tRp57
(dp58
g2
g30
sg31
F95.151231243300003
sg32
F100
sg33
F0.69999999999999996
sg21
S'2014-06-10 15:51'
p59
sg35
F1
sg36
F23.787807810825001
sg37
F47.575615621650002
sg38
F0.010509585498090064
sbatRp60
(dp61
g44
S'rabi_parameters_items'
p62
sg17
g25
sbsg46
V0.2*0.7 V
p63
sg2
g30
sbag10
(g11
tRp64
(dp65
g14
I-1
sg15
F4.8107100000000003
sg16
F238
sg17
V14N+1 mS-1
p66
sg19
S'14N +1'
p67
sg21
S'2013-03-01 17:22'
p68
sg23
F14261.9
sg24
F4.6603298922
sg25
g6
(g7
g8
(lp69
g10
(g27
tRp70
(dp71
g2
g30
sg31
F129.350495196
sg32
F100
sg33
F0.69999999999999996
sg21
S'2014-06-10 15:51'
p72
sg35
F1
sg36
F32.337623798999999
sg37
F64.675247597999999
sg38
F0.0077309329081789533
sbag10
(g27
tRp73
(dp74
g2
g30
sg31
F274.75345179499999
sg32
F100
sg33
F0.69999999999999996
sg21
S'2014-06-10 15:51'
p75
sg35
F0.40000000000000002
sg36
F68.688362948749997
sg37
F137.37672589749999
sg38
F0.0036396267033839617
sbatRp76
(dp77
g44
S'rabi_parameters_items'
p78
sg17
g25
sbsg46
V1*0.7 V
p79
sg2
g30
sbag10
(g11
tRp80
(dp81
g14
I-1
sg15
F5.0801400000000001
sg16
F227
sg17
V14N-1 mS-1
p82
sg19
S'14N -1'
p83
sg21
S'2013-03-01 17:44'
p84
sg23
F14525.299999999999
sg24
F5.2016076627999999
sg25
g6
(g7
g8
(lp85
g10
(g27
tRp86
(dp87
g2
g30
sg31
F104.506897276
sg32
F100
sg33
F0.69999999999999996
sg21
S'2014-06-10 15:51'
p88
sg35
F1
sg36
F26.126724319000001
sg37
F52.253448638000002
sg38
F0.0095687464278939021
sbag10
(g27
tRp89
(dp90
g2
g30
sg31
F222.914403736
sg32
F100
sg33
F0.69999999999999996
sg21
S'2014-06-10 15:51'
p91
sg35
F0.40000000000000002
sg36
F55.728600933999999
sg37
F111.457201868
sg38
F0.0044860268481542861
sbatRp92
(dp93
g44
S'rabi_parameters_items'
p94
sg17
g25
sbsg46
V1*0.7 V
p95
sg2
g30
sbag10
(g11
tRp96
(dp97
g14
I-1
sg15
F7.4797599999999997
sg16
F34.299999999999997
sg17
V13C414 mS-1
p98
sg19
S'13C'
p99
sg21
S'2013-03-01 13:35'
p100
sg23
F14542.799999999999
sg24
F7.0638120000000004
sg25
g6
(g7
g8
(lp101
g10
(g27
tRp102
(dp103
g2
g30
sg31
F61.874339999999997
sg32
F100
sg33
F0.69999999999999996
sg21
S'2014-06-10 15:51'
p104
sg35
F0.40000000000000002
sg36
F15.468584999999999
sg37
F30.937169999999998
sg38
F0.016161788554027407
sbag10
(g27
tRp105
(dp106
g2
g30
sg31
F30.310538492999999
sg32
F100
sg33
F0.69999999999999996
sg21
S'2014-06-10 15:51'
p107
sg35
F1
sg36
F7.5776346232499998
sg37
F15.1552692465
sg38
F0.032991825606494676
sbatRp108
(dp109
g44
S'rabi_parameters_items'
p110
sg17
g25
sbsg46
V1*0.7 V
p111
sg2
g30
sbag10
(g11
tRp112
(dp113
g14
I0
sg15
F7.0667
sg16
F37.100000000000001
sg17
V13C mS0
p114
sg19
S'13C'
p115
sg21
S'2013-03-01 17:06'
p116
sg23
F14543.120000000001
sg24
F6.6508760000000002
sg25
g6
(g7
g8
(lp117
g10
(g27
tRp118
(dp119
g2
g30
sg31
F31.096
sg32
F100
sg33
F0.69999999999999996
sg21
S'2014-06-10 15:51'
p120
sg35
F1
sg36
F7.774
sg37
F15.548
sg38
F0.032158476974530489
sbag10
(g27
tRp121
(dp122
g2
g30
sg31
F71.698864328900001
sg32
F100
sg33
F0.69999999999999996
sg21
S'2014-06-10 15:51'
p123
sg35
F0.40000000000000002
sg36
F17.924716082225
sg37
F35.84943216445
sg38
F0.013947222307633194
sbatRp124
(dp125
g44
S'rabi_parameters_items'
p126
sg17
g25
sbsg46
V0.8*0.7 V
p127
sg2
g30
sbag10
(g11
tRp128
(dp129
g14
I-1
sg15
F7.1554900000000004
sg16
F31.600000000000001
sg17
V13C90 mS-1
p130
sg19
S'13C'
p131
sg21
S'2013-03-02 11:36'
p132
sg23
F14257.93
sg24
F6.6307320000000001
sg25
g6
(g7
g8
(lp133
g10
(g27
tRp134
(dp135
g2
g30
sg31
F66.853327332999996
sg32
F100
sg33
F0.69999999999999996
sg21
S'2014-06-10 15:51'
p136
sg35
F0.40000000000000002
sg36
F16.713331833249999
sg37
F33.426663666499998
sg38
F0.014958118614185747
sbag10
(g27
tRp137
(dp138
g2
g30
sg31
F29.555
sg32
F100
sg33
F0.69999999999999996
sg21
S'2014-06-10 15:51'
p139
sg35
F1
sg36
F7.3887499999999999
sg37
F14.7775
sg38
F0.033835222466587718
sbatRp140
(dp141
g44
S'rabi_parameters_items'
p142
sg17
g25
sbsg46
V1*0.7 V
p143
sg2
g30
sbag10
(g11
tRp144
(dp145
g14
I-1
sg15
F7.1574999999999998
sg17
S'fid2.0khz'
p146
sg19
S'13C'
p147
sg21
S'2014-05-06 17:26'
p148
sg23
cnumpy.core.multiarray
scalar
p149
(cnumpy
dtype
p150
(S'f8'
I0
I1
tRp151
(I3
S'<'
NNNI-1
I-1
I0
tbS'\r/\x05\xf5|\xe3\xc8@'
tRp152
sg24
F6.0540500000000002
sg25
g6
(g7
g8
(ltRp153
(dp154
g44
S'rabi_parameters_items'
p155
sg17
g25
sbsg2
g30
sbatRp156
(dp157
g44
S'transitions_items'
p158
sg17
g5
sbsS'mw_mixing_frequency'
p159
F20
s.